; Function Attrs: mustprogress uwtable
define void @_ZN8facebook5velox6memory14AllocationPool18growLastAllocationEv(ptr nocapture noundef nonnull align 8 dereferenceable(96) %this) local_unnamed_addr #0 align 2 {
entry:
  %bytesInRun_ = getelementptr inbounds i8, ptr %this, i64 64
  %0 = load i64, ptr %bytesInRun_, align 8
  %cmp = icmp ult i64 %0, 2097153
  br i1 %cmp, label %if.then, label %if.end

if.then:                                          ; preds = %entry
  tail call void @llvm.trap()
  unreachable

if.end:                                           ; preds = %entry
  %currentOffset_ = getelementptr inbounds i8, ptr %this, i64 72
  %1 = load i64, ptr %currentOffset_, align 8
  %largeAllocations_.i = getelementptr inbounds i8, ptr %this, i64 32
  %2 = load ptr, ptr %largeAllocations_.i, align 8
  %_M_finish.i.i.i = getelementptr inbounds i8, ptr %this, i64 40
  %3 = load ptr, ptr %_M_finish.i.i.i, align 8
  %cmp.i.i.i = icmp eq ptr %2, %3
  %size_.i.i = getelementptr inbounds i8, ptr %3, i64 -16
  %retval.0.in.i = select i1 %cmp.i.i.i, ptr %bytesInRun_, ptr %size_.i.i
  %retval.0.i = load i64, ptr %retval.0.in.i, align 8
  %4 = xor i64 %retval.0.i, -1
  %sub.i = add i64 %1, %4
  %5 = and i64 %sub.i, -2097152
  %mul.i = add i64 %5, 2097152
  %add.ptr.i.i = getelementptr inbounds i8, ptr %3, i64 -32
  %sub.i3 = or i64 %sub.i, 2097151
  %mul.i5 = add i64 %sub.i3, 1
  %div.i2 = lshr exact i64 %mul.i5, 12
  tail call void @_ZN8facebook5velox6memory20ContiguousAllocation4growEm(ptr noundef nonnull align 8 dereferenceable(32) %add.ptr.i.i, i64 noundef %div.i2)
  %usedBytes_ = getelementptr inbounds i8, ptr %this, i64 80
  %6 = load i64, ptr %usedBytes_, align 8
  %add = add nsw i64 %mul.i, %6
  store i64 %add, ptr %usedBytes_, align 8
  ret void
}